; Function Attrs: mustprogress nofree norecurse nosync nounwind sspstrong willreturn memory(argmem: read) uwtable
define internal zeroext i1 @vfio_display_migration_needed(ptr noundef readonly captures(none) %0) #20 {
  %2 = getelementptr inbounds nuw i8, ptr %0, i64 3764
  %3 = load i32, ptr %2, align 4
  switch i32 %3, label %.fold.split [
    i32 1, label %8
    i32 0, label %4
  ]

4:                                                ; preds = %1
  %5 = getelementptr inbounds nuw i8, ptr %0, i64 3761
  %6 = load i8, ptr %5, align 1, !range !6, !noundef !7
  %7 = trunc nuw i8 %6 to i1
  br label %8

.fold.split:                                      ; preds = %1
  br label %8

8:                                                ; preds = %1, %.fold.split, %4
  %9 = phi i1 [ true, %1 ], [ %7, %4 ], [ false, %.fold.split ]
  ret i1 %9
}